; Function Attrs: nounwind uwtable
define range(i32 0, 2) i32 @ENGINE_set_name(ptr noundef writeonly captures(none) %0, ptr noundef %1) local_unnamed_addr #0 {
  %3 = icmp eq ptr %1, null
  br i1 %3, label %4, label %5

4:                                                ; preds = %2
  tail call void @ERR_new() #6
  tail call void @ERR_set_debug(ptr noundef nonnull @.str, i32 noundef 216, ptr noundef nonnull @__func__.ENGINE_set_name) #6
  tail call void (i32, i32, ptr, ...) @ERR_set_error(i32 noundef 38, i32 noundef 786690, ptr noundef null) #6
  br label %7

5:                                                ; preds = %2
  %6 = getelementptr inbounds nuw i8, ptr %0, i64 8
  store ptr %1, ptr %6, align 8, !tbaa !32
  br label %7

7:                                                ; preds = %5, %4
  %.0 = phi i32 [ 0, %4 ], [ 1, %5 ]
  ret i32 %.0
}